; ModuleID = '60/544.c'
source_filename = "60/544.c"
target datalayout = "e-m:e-p270:32:32-p271:32:32-p272:64:64-i64:64-f80:128-n8:16:32:64-S128"
target triple = "x86_64-pc-linux-gnu"

@.str = private unnamed_addr constant [4 x i8] c"%ld\00", align 1
@.str.1 = private unnamed_addr constant [6 x i8] c"empty\00", align 1
@.str.2 = private unnamed_addr constant [9 x i8] c"%ld %ld\0A\00", align 1

; Function Attrs: noinline nounwind uwtable
define dso_local i32 @su(i64 %0) #0 {
  %2 = alloca i32, align 4
  %3 = alloca i64, align 8
  %4 = alloca i64, align 8
  %5 = alloca i64, align 8
  %6 = alloca i64, align 8
  %7 = alloca i64, align 8
  store i64 %0, i64* %3, align 8
  %8 = load i64, i64* %3, align 8
  %9 = sitofp i64 %8 to double
  %10 = call double @sqrt(double %9) #4
  %11 = fptosi double %10 to i64
  store i64 %11, i64* %7, align 8
  store i64 0, i64* %6, align 8
  store i64 2, i64* %4, align 8
  br label %12

12:                                               ; preds = %23, %1
  %13 = load i64, i64* %4, align 8
  %14 = load i64, i64* %7, align 8
  %15 = icmp sle i64 %13, %14
  br i1 %15, label %16, label %26

16:                                               ; preds = %12
  %17 = load i64, i64* %3, align 8
  %18 = load i64, i64* %4, align 8
  %19 = srem i64 %17, %18
  %20 = icmp eq i64 %19, 0
  br i1 %20, label %21, label %22

21:                                               ; preds = %16
  store i64 1, i64* %6, align 8
  br label %26

22:                                               ; preds = %16
  br label %23

23:                                               ; preds = %22
  %24 = load i64, i64* %4, align 8
  %25 = add nsw i64 %24, 1
  store i64 %25, i64* %4, align 8
  br label %12

26:                                               ; preds = %21, %12
  %27 = load i64, i64* %6, align 8
  %28 = icmp ne i64 %27, 0
  br i1 %28, label %29, label %30

29:                                               ; preds = %26
  store i32 0, i32* %2, align 4
  br label %31

30:                                               ; preds = %26
  store i32 1, i32* %2, align 4
  br label %31

31:                                               ; preds = %30, %29
  %32 = load i32, i32* %2, align 4
  ret i32 %32
}

; Function Attrs: nounwind
declare dso_local double @sqrt(double) #1

; Function Attrs: noinline nounwind uwtable
define dso_local void @main() #0 {
  %1 = alloca i64, align 8
  %2 = alloca i64, align 8
  %3 = alloca i64, align 8
  %4 = alloca i64, align 8
  %5 = alloca i64, align 8
  %6 = alloca i64, align 8
  %7 = alloca i64, align 8
  %8 = alloca i64, align 8
  %9 = alloca i64, align 8
  %10 = alloca i64, align 8
  %11 = call i32 (i8*, ...) @__isoc99_scanf(i8* getelementptr inbounds ([4 x i8], [4 x i8]* @.str, i64 0, i64 0), i64* %10)
  %12 = load i64, i64* %10, align 8
  %13 = icmp sle i64 %12, 4
  br i1 %13, label %14, label %16

14:                                               ; preds = %0
  %15 = call i32 (i8*, ...) @printf(i8* getelementptr inbounds ([6 x i8], [6 x i8]* @.str.1, i64 0, i64 0))
  call void @exit(i32 1) #5
  unreachable

16:                                               ; preds = %0
  store i64 3, i64* %5, align 8
  br label %17

17:                                               ; preds = %36, %16
  %18 = load i64, i64* %5, align 8
  %19 = load i64, i64* %10, align 8
  %20 = sub nsw i64 %19, 2
  %21 = icmp sle i64 %18, %20
  br i1 %21, label %22, label %39

22:                                               ; preds = %17
  %23 = load i64, i64* %5, align 8
  %24 = call i32 @su(i64 %23)
  %25 = load i64, i64* %5, align 8
  %26 = add nsw i64 %25, 2
  %27 = call i32 @su(i64 %26)
  %28 = add nsw i32 %24, %27
  %29 = icmp eq i32 %28, 2
  br i1 %29, label %30, label %35

30:                                               ; preds = %22
  %31 = load i64, i64* %5, align 8
  %32 = load i64, i64* %5, align 8
  %33 = add nsw i64 %32, 2
  %34 = call i32 (i8*, ...) @printf(i8* getelementptr inbounds ([9 x i8], [9 x i8]* @.str.2, i64 0, i64 0), i64 %31, i64 %33)
  br label %35

35:                                               ; preds = %30, %22
  br label %36

36:                                               ; preds = %35
  %37 = load i64, i64* %5, align 8
  %38 = add nsw i64 %37, 1
  store i64 %38, i64* %5, align 8
  br label %17

39:                                               ; preds = %17
  ret void
}

declare dso_local i32 @__isoc99_scanf(i8*, ...) #2

declare dso_local i32 @printf(i8*, ...) #2

; Function Attrs: noreturn nounwind
declare dso_local void @exit(i32) #3


!llvm.module.flags = !{!0}
!llvm.ident = !{!1}

!0 = !{i32 1, !"wchar_size", i32 4}
!1 = !{!"clang version 10.0.0-4ubuntu1 "}
